target datalayout = "e-m:e-p270:32:32-p271:32:32-p272:64:64-i64:64-i128:128-f80:128-n8:16:32:64-S128"
target triple = "x86_64-unknown-linux-gnu"

%"class.std::__shared_count" = type { ptr }
%"class.std::shared_ptr.7" = type { %"class.std::__shared_ptr.8" }
%"class.std::__shared_ptr.8" = type { ptr, %"class.std::__shared_count" }
%"class.node::MemoryRetainer" = type { ptr }
%"class.node::(anonymous namespace)::EntryImpl" = type { %"class.node::DataQueue::Entry" }
%"class.node::DataQueue::Entry" = type { %"class.node::MemoryRetainer" }
%"class.node::(anonymous namespace)::InMemoryEntry" = type { %"class.node::(anonymous namespace)::EntryImpl", %"class.std::shared_ptr.7", i64, i64 }

@.str.1 = private unnamed_addr constant [6 x i8] c"store\00", align 1
@.str.85 = private unnamed_addr constant [34 x i8] c"std::shared_ptr<v8::BackingStore>\00", align 1

; Function Attrs: mustprogress nounwind uwtable
define linkonce_odr dso_local noundef ptr @_ZNKSt12__shared_ptrIN2v812BackingStoreELN9__gnu_cxx12_Lock_policyE2EE3getEv(ptr noundef nonnull align 8 dereferenceable(16) %this) #4 comdat align 2 {
entry:
  %this.addr = alloca ptr, align 8
  store ptr %this, ptr %this.addr, align 8
  %this1 = load ptr, ptr %this.addr, align 8
  %_M_ptr = getelementptr inbounds %"class.std::__shared_ptr.8", ptr %this1, i32 0, i32 0
  %0 = load ptr, ptr %_M_ptr, align 8
  ret ptr %0
}

; Function Attrs: mustprogress nounwind uwtable
define linkonce_odr dso_local void @_ZN4node13MemoryTracker10TrackFieldIN2v812BackingStoreEEEvPKcRKSt10shared_ptrIT_ES5_(ptr noundef nonnull align 8 dereferenceable(152) %this, ptr noundef %edge_name, ptr noundef nonnull align 8 dereferenceable(16) %value, ptr noundef %node_name) #4 comdat align 2 {
entry:
  %this.addr = alloca ptr, align 8
  %edge_name.addr = alloca ptr, align 8
  %value.addr = alloca ptr, align 8
  %node_name.addr = alloca ptr, align 8
  store ptr %this, ptr %this.addr, align 8
  store ptr %edge_name, ptr %edge_name.addr, align 8
  store ptr %value, ptr %value.addr, align 8
  store ptr %node_name, ptr %node_name.addr, align 8
  %this1 = load ptr, ptr %this.addr, align 8
  %0 = load ptr, ptr %value.addr, align 8
  %call = call noundef ptr @_ZNKSt12__shared_ptrIN2v812BackingStoreELN9__gnu_cxx12_Lock_policyE2EE3getEv(ptr noundef nonnull align 8 dereferenceable(16) %0) #3
  %cmp = icmp eq ptr %call, null
  br i1 %cmp, label %if.then, label %if.end

if.then:                                          ; preds = %entry
  br label %return

if.end:                                           ; preds = %entry
  %1 = load ptr, ptr %edge_name.addr, align 8
  %2 = load ptr, ptr %value.addr, align 8
  %call2 = call noundef ptr @_ZNKSt12__shared_ptrIN2v812BackingStoreELN9__gnu_cxx12_Lock_policyE2EE3getEv(ptr noundef nonnull align 8 dereferenceable(16) %2) #3
  %3 = load ptr, ptr %node_name.addr, align 8
  call void @_ZN4node13MemoryTracker10TrackFieldEPKcPKN2v812BackingStoreES2_(ptr noundef nonnull align 8 dereferenceable(152) %this1, ptr noundef %1, ptr noundef %call2, ptr noundef %3)
  br label %return

return:                                           ; preds = %if.end, %if.then
  ret void
}

; Function Attrs: mustprogress nounwind uwtable
define internal void @_ZNK4node12_GLOBAL__N_113InMemoryEntry10MemoryInfoEPNS_13MemoryTrackerE(ptr noundef nonnull align 8 dereferenceable(40) %this, ptr noundef %tracker) unnamed_addr #4 align 2 {
entry:
  %this.addr = alloca ptr, align 8
  %tracker.addr = alloca ptr, align 8
  store ptr %this, ptr %this.addr, align 8
  store ptr %tracker, ptr %tracker.addr, align 8
  %this1 = load ptr, ptr %this.addr, align 8
  %0 = load ptr, ptr %tracker.addr, align 8
  %backing_store_ = getelementptr inbounds %"class.node::(anonymous namespace)::InMemoryEntry", ptr %this1, i32 0, i32 1
  call void @_ZN4node13MemoryTracker10TrackFieldIN2v812BackingStoreEEEvPKcRKSt10shared_ptrIT_ES5_(ptr noundef nonnull align 8 dereferenceable(152) %0, ptr noundef @.str.1, ptr noundef nonnull align 8 dereferenceable(16) %backing_store_, ptr noundef @.str.85)
  ret void
}