; Function Attrs: mustprogress nounwind uwtable
define internal void @_ZNK4node12_GLOBAL__N_113InMemoryEntry10MemoryInfoEPNS_13MemoryTrackerE(ptr nocapture noundef nonnull readonly align 8 dereferenceable(40) %this, ptr noundef %tracker) unnamed_addr #3 align 2 {
entry:
  %backing_store_ = getelementptr inbounds i8, ptr %this, i64 8
  %0 = load ptr, ptr %backing_store_, align 8
  %cmp.i = icmp eq ptr %0, null
  br i1 %cmp.i, label %_ZN4node13MemoryTracker10TrackFieldIN2v812BackingStoreEEEvPKcRKSt10shared_ptrIT_ES5_.exit, label %if.end.i

if.end.i:                                         ; preds = %entry
  tail call void @_ZN4node13MemoryTracker10TrackFieldEPKcPKN2v812BackingStoreES2_(ptr noundef nonnull align 8 dereferenceable(152) %tracker, ptr noundef nonnull @.str.1, ptr noundef nonnull %0, ptr noundef nonnull @.str.85)
  br label %_ZN4node13MemoryTracker10TrackFieldIN2v812BackingStoreEEEvPKcRKSt10shared_ptrIT_ES5_.exit

_ZN4node13MemoryTracker10TrackFieldIN2v812BackingStoreEEEvPKcRKSt10shared_ptrIT_ES5_.exit: ; preds = %entry, %if.end.i
  ret void
}